; Function Attrs: mustprogress uwtable
define void @_ZN5arrow4util5Mutex4LockEv(ptr dead_on_unwind noalias writable sret(%"class.arrow::util::Mutex::Guard") align 8 %0, ptr noundef nonnull align 8 dereferenceable(16) %1) local_unnamed_addr #1 align 2 {
  %3 = getelementptr inbounds nuw i8, ptr %1, i64 8
  %4 = load ptr, ptr %3, align 8, !tbaa !11
  %5 = tail call noundef i32 @pthread_mutex_lock(ptr noundef nonnull align 8 dereferenceable(40) %4) #11
  %.not.i = icmp eq i32 %5, 0
  br i1 %.not.i, label %_ZNSt5mutex4lockEv.exit, label %6

6:                                                ; preds = %2
  tail call void @_ZSt20__throw_system_errori(i32 noundef %5) #12
  unreachable

_ZNSt5mutex4lockEv.exit:                          ; preds = %2
  tail call void @_ZN5arrow4util5Mutex5GuardC1EPS1_(ptr noundef nonnull align 8 dereferenceable(16) %0, ptr noundef nonnull %1)
  ret void
}